target datalayout = "e-m:e-p270:32:32-p271:32:32-p272:64:64-i64:64-i128:128-f80:128-n8:16:32:64-S128"
target triple = "x86_64-pc-linux-gnu"

%struct.Gem_Man_t_ = type { i32, i32, i32, i32, ptr, ptr, ptr, i32 }
%struct.Gem_Obj_t_ = type { i32, i32 }

@.str = private unnamed_addr constant [76 x i8] c"Node %6d : %s  Pred = %6d  Vars = %d  Nodes = %d  History = %d%d  Profile: \00", align 1
@stdout = external global ptr, align 8
@.str.1 = private unnamed_addr constant [4 x i8] c"%s\0A\00", align 1
@.str.2 = private unnamed_addr constant [3 x i8] c" *\00", align 1
@.str.3 = private unnamed_addr constant [1 x i8] zeroinitializer, align 1

; Function Attrs: nounwind uwtable
define void @Gem_PrintNode(ptr noundef %0, i32 noundef %1, ptr noundef %2, i32 noundef %3) #0 {
  %5 = alloca ptr, align 8
  %6 = alloca i32, align 4
  %7 = alloca ptr, align 8
  %8 = alloca i32, align 4
  %9 = alloca ptr, align 8
  %10 = alloca i32, align 4
  %11 = alloca i32, align 4
  store ptr %0, ptr %5, align 8, !tbaa !3
  store i32 %1, ptr %6, align 4, !tbaa !8
  store ptr %2, ptr %7, align 8, !tbaa !10
  store i32 %3, ptr %8, align 4, !tbaa !8
  call void @llvm.lifetime.start.p0(i64 8, ptr %9) #13
  %12 = load ptr, ptr %5, align 8, !tbaa !3
  %13 = getelementptr inbounds nuw %struct.Gem_Man_t_, ptr %12, i32 0, i32 4
  %14 = load ptr, ptr %13, align 8, !tbaa !12
  %15 = load i32, ptr %6, align 4, !tbaa !8
  %16 = sext i32 %15 to i64
  %17 = getelementptr inbounds %struct.Gem_Obj_t_, ptr %14, i64 %16
  store ptr %17, ptr %9, align 8, !tbaa !17
  call void @llvm.lifetime.start.p0(i64 4, ptr %10) #13
  %18 = load ptr, ptr %9, align 8, !tbaa !17
  %19 = load i32, ptr %18, align 4
  %20 = lshr i32 %19, 16
  store i32 %20, ptr %10, align 4, !tbaa !8
  %21 = load ptr, ptr %5, align 8, !tbaa !3
  %22 = getelementptr inbounds nuw %struct.Gem_Man_t_, ptr %21, i32 0, i32 7
  %23 = load i32, ptr %22, align 8, !tbaa !18
  %24 = icmp ne i32 %23, 0
  br i1 %24, label %26, label %25

25:                                               ; preds = %4
  store i32 1, ptr %11, align 4
  br label %58

26:                                               ; preds = %4
  %27 = load i32, ptr %6, align 4, !tbaa !8
  %28 = load ptr, ptr %7, align 8, !tbaa !10
  %29 = load ptr, ptr %9, align 8, !tbaa !17
  %30 = getelementptr inbounds nuw %struct.Gem_Obj_t_, ptr %29, i32 0, i32 1
  %31 = load i32, ptr %30, align 4, !tbaa !19
  %32 = load ptr, ptr %9, align 8, !tbaa !17
  %33 = load i32, ptr %32, align 4
  %34 = and i32 %33, 15
  %35 = load ptr, ptr %9, align 8, !tbaa !17
  %36 = load i32, ptr %35, align 4
  %37 = lshr i32 %36, 4
  %38 = and i32 %37, 15
  %39 = load ptr, ptr %9, align 8, !tbaa !17
  %40 = load i32, ptr %39, align 4
  %41 = lshr i32 %40, 8
  %42 = and i32 %41, 255
  %43 = and i32 %42, 15
  %44 = load ptr, ptr %9, align 8, !tbaa !17
  %45 = load i32, ptr %44, align 4
  %46 = lshr i32 %45, 8
  %47 = and i32 %46, 255
  %48 = ashr i32 %47, 4
  %49 = call i32 (ptr, ...) @printf(ptr noundef @.str, i32 noundef %27, ptr noundef %28, i32 noundef %31, i32 noundef %34, i32 noundef %38, i32 noundef %43, i32 noundef %48)
  %50 = load ptr, ptr @stdout, align 8, !tbaa !21
  %51 = load ptr, ptr %5, align 8, !tbaa !3
  %52 = getelementptr inbounds nuw %struct.Gem_Man_t_, ptr %51, i32 0, i32 0
  %53 = load i32, ptr %52, align 8, !tbaa !23
  call void @Extra_PrintBinary2(ptr noundef %50, ptr noundef %10, i32 noundef %53)
  %54 = load i32, ptr %8, align 4, !tbaa !8
  %55 = icmp ne i32 %54, 0
  %56 = select i1 %55, ptr @.str.2, ptr @.str.3
  %57 = call i32 (ptr, ...) @printf(ptr noundef @.str.1, ptr noundef %56)
  store i32 0, ptr %11, align 4
  br label %58

58:                                               ; preds = %26, %25
  call void @llvm.lifetime.end.p0(i64 4, ptr %10) #13
  call void @llvm.lifetime.end.p0(i64 8, ptr %9) #13
  %59 = load i32, ptr %11, align 4
  switch i32 %59, label %61 [
    i32 0, label %60
    i32 1, label %60
  ]

60:                                               ; preds = %58, %58
  ret void

61:                                               ; preds = %58
  unreachable
}