; Function Attrs: nounwind uwtable
define void @Gem_PrintNode(ptr noundef readonly captures(none) %0, i32 noundef %1, ptr noundef %2, i32 noundef %3) local_unnamed_addr #0 {
  %5 = alloca i32, align 4
  %6 = getelementptr inbounds nuw i8, ptr %0, i64 16
  %7 = load ptr, ptr %6, align 8, !tbaa !3
  %8 = sext i32 %1 to i64
  %9 = getelementptr inbounds %struct.Gem_Obj_t_, ptr %7, i64 %8
  call void @llvm.lifetime.start.p0(i64 4, ptr nonnull %5) #22
  %10 = load i32, ptr %9, align 4
  %11 = lshr i32 %10, 16
  store i32 %11, ptr %5, align 4, !tbaa !12
  %12 = getelementptr inbounds nuw i8, ptr %0, i64 40
  %13 = load i32, ptr %12, align 8, !tbaa !13
  %.not = icmp eq i32 %13, 0
  br i1 %.not, label %28, label %14

14:                                               ; preds = %4
  %15 = getelementptr inbounds nuw i8, ptr %9, i64 4
  %16 = load i32, ptr %15, align 4, !tbaa !14
  %17 = and i32 %10, 15
  %18 = lshr i32 %10, 4
  %19 = and i32 %18, 15
  %20 = lshr i32 %10, 8
  %21 = and i32 %20, 15
  %22 = lshr i32 %10, 12
  %23 = and i32 %22, 15
  %24 = tail call i32 (ptr, ...) @printf(ptr noundef nonnull dereferenceable(1) @.str, i32 noundef %1, ptr noundef %2, i32 noundef %16, i32 noundef %17, i32 noundef %19, i32 noundef %21, i32 noundef %23)
  %25 = load ptr, ptr @stdout, align 8, !tbaa !16
  %26 = load i32, ptr %0, align 8, !tbaa !18
  call void @Extra_PrintBinary2(ptr noundef %25, ptr noundef nonnull %5, i32 noundef %26) #22
  %.not12 = icmp eq i32 %3, 0
  %27 = select i1 %.not12, ptr @.str.3, ptr @.str.2
  %puts = call i32 @puts(ptr nonnull dereferenceable(1) %27)
  br label %28

28:                                               ; preds = %4, %14
  call void @llvm.lifetime.end.p0(i64 4, ptr nonnull %5) #22
  ret void
}